target datalayout = "e-m:e-p270:32:32-p271:32:32-p272:64:64-i64:64-i128:128-f80:128-n8:16:32:64-S128"
target triple = "x86_64-pc-linux-gnu"

%struct._packet_info = type { ptr, ptr, i32, i32, %struct.nstime_t, %struct.nstime_t, %struct.nstime_t, i8, ptr, ptr, ptr, ptr, %struct._address, %struct._address, %struct._address, %struct._address, %struct._address, %struct._address, i32, ptr, i8, [3 x i8], %struct.anon, i32, i32, i32, i32, ptr, i8, ptr, ptr, i16, i16, i32, i32, i16, i32, i32, ptr, ptr, ptr, i8, i8, i16, i16, i16, i32, i16, i16, ptr, ptr, ptr, ptr, ptr, i32, i32 }
%struct.nstime_t = type { i64, i32 }
%struct._address = type { i32, i32, ptr, ptr }
%struct.anon = type { i8, [3 x i8] }
%struct._value_string_enum = type { i8, ptr }

@.str.2685 = private unnamed_addr constant [5 x i8] c"%s: \00", align 1
@.str.3126 = private unnamed_addr constant [14 x i8] c"Unknown State\00", align 1

; Function Attrs: null_pointer_is_valid sspstrong uwtable
define internal i32 @fEnumeratedTag(ptr noundef %0, ptr noundef %1, ptr noundef %2, i32 noundef %3, ptr noundef %4, ptr noundef %5) #0 {
  %7 = alloca ptr, align 8
  %8 = alloca ptr, align 8
  %9 = alloca ptr, align 8
  %10 = alloca i32, align 4
  %11 = alloca ptr, align 8
  %12 = alloca ptr, align 8
  store ptr %0, ptr %7, align 8
  store ptr %1, ptr %8, align 8
  store ptr %2, ptr %9, align 8
  store i32 %3, ptr %10, align 4
  store ptr %4, ptr %11, align 8
  store ptr %5, ptr %12, align 8
  %13 = load ptr, ptr %7, align 8
  %14 = load ptr, ptr %8, align 8
  %15 = load ptr, ptr %9, align 8
  %16 = load i32, ptr %10, align 4
  %17 = load ptr, ptr %11, align 8
  %18 = load ptr, ptr %12, align 8
  %19 = call i32 @fEnumeratedTagSplit(ptr noundef %13, ptr noundef %14, ptr noundef %15, i32 noundef %16, ptr noundef %17, ptr noundef %18, i32 noundef 0)
  ret i32 %19
}

; Function Attrs: null_pointer_is_valid sspstrong uwtable
define internal i32 @fTagHeader(ptr noundef %0, ptr noundef %1, i32 noundef %2, ptr noundef %3, ptr noundef %4, ptr noundef %5) #0 {
  %7 = alloca ptr, align 8
  %8 = alloca ptr, align 8
  %9 = alloca i32, align 4
  %10 = alloca ptr, align 8
  %11 = alloca ptr, align 8
  %12 = alloca ptr, align 8
  store ptr %0, ptr %7, align 8
  store ptr %1, ptr %8, align 8
  store i32 %2, ptr %9, align 4
  store ptr %3, ptr %10, align 8
  store ptr %4, ptr %11, align 8
  store ptr %5, ptr %12, align 8
  %13 = load ptr, ptr %7, align 8
  %14 = load ptr, ptr %8, align 8
  %15 = load i32, ptr %9, align 4
  %16 = load ptr, ptr %10, align 8
  %17 = load ptr, ptr %11, align 8
  %18 = load ptr, ptr %12, align 8
  %19 = call i32 @fTagHeaderTree(ptr noundef %13, ptr noundef %14, ptr noundef null, i32 noundef %15, ptr noundef %16, ptr noundef %17, ptr noundef %18)
  ret i32 %19
}

; Function Attrs: null_pointer_is_valid sspstrong uwtable
define internal i32 @fBACnetPropertyStates(ptr noundef %0, ptr noundef %1, ptr noundef %2, i32 noundef %3) #0 {
  %5 = alloca ptr, align 8
  %6 = alloca ptr, align 8
  %7 = alloca ptr, align 8
  %8 = alloca i32, align 4
  %9 = alloca i8, align 1
  %10 = alloca i8, align 1
  %11 = alloca i32, align 4
  %12 = alloca i32, align 4
  %13 = alloca ptr, align 8
  %14 = alloca ptr, align 8
  store ptr %0, ptr %5, align 8
  store ptr %1, ptr %6, align 8
  store ptr %2, ptr %7, align 8
  store i32 %3, ptr %8, align 4
  call void @llvm.lifetime.start.p0(i64 1, ptr %9) #7
  call void @llvm.lifetime.start.p0(i64 1, ptr %10) #7
  call void @llvm.lifetime.start.p0(i64 4, ptr %11) #7
  call void @llvm.lifetime.start.p0(i64 4, ptr %12) #7
  call void @llvm.lifetime.start.p0(i64 8, ptr %13) #7
  call void @llvm.lifetime.start.p0(i64 8, ptr %14) #7
  %15 = load ptr, ptr %5, align 8
  %16 = load ptr, ptr %6, align 8
  %17 = load i32, ptr %8, align 4
  %18 = call i32 @fTagHeader(ptr noundef %15, ptr noundef %16, i32 noundef %17, ptr noundef %9, ptr noundef %10, ptr noundef %11)
  %19 = load ptr, ptr %6, align 8
  %20 = getelementptr inbounds nuw %struct._packet_info, ptr %19, i32 0, i32 51
  %21 = load ptr, ptr %20, align 8
  %22 = load i8, ptr %9, align 1
  %23 = zext i8 %22 to i32
  %24 = call ptr @val_to_str_const(i32 noundef %23, ptr noundef @BACnetPropertyStates, ptr noundef @.str.3126)
  %25 = call noalias ptr (ptr, ptr, ...) @wmem_strdup_printf(ptr noundef %21, ptr noundef @.str.2685, ptr noundef %24)
  store ptr %25, ptr %13, align 8
  %26 = load i8, ptr %9, align 1
  %27 = zext i8 %26 to i32
  switch i32 %27, label %56 [
    i32 0, label %28
    i32 11, label %35
    i32 41, label %42
    i32 63, label %49
  ]

28:                                               ; preds = %4
  %29 = load ptr, ptr %5, align 8
  %30 = load ptr, ptr %6, align 8
  %31 = load ptr, ptr %7, align 8
  %32 = load i32, ptr %8, align 4
  %33 = load ptr, ptr %13, align 8
  %34 = call i32 @fBooleanTag(ptr noundef %29, ptr noundef %30, ptr noundef %31, i32 noundef %32, ptr noundef %33)
  store i32 %34, ptr %8, align 4
  br label %103

35:                                               ; preds = %4
  %36 = load ptr, ptr %5, align 8
  %37 = load ptr, ptr %6, align 8
  %38 = load ptr, ptr %7, align 8
  %39 = load i32, ptr %8, align 4
  %40 = load ptr, ptr %13, align 8
  %41 = call i32 @fUnsignedTag(ptr noundef %36, ptr noundef %37, ptr noundef %38, i32 noundef %39, ptr noundef %40)
  store i32 %41, ptr %8, align 4
  br label %103

42:                                               ; preds = %4
  %43 = load ptr, ptr %5, align 8
  %44 = load ptr, ptr %6, align 8
  %45 = load ptr, ptr %7, align 8
  %46 = load i32, ptr %8, align 4
  %47 = load ptr, ptr %13, align 8
  %48 = call i32 @fSignedTag(ptr noundef %43, ptr noundef %44, ptr noundef %45, i32 noundef %46, ptr noundef %47)
  store i32 %48, ptr %8, align 4
  br label %103

49:                                               ; preds = %4
  %50 = load ptr, ptr %5, align 8
  %51 = load ptr, ptr %6, align 8
  %52 = load ptr, ptr %7, align 8
  %53 = load i32, ptr %8, align 4
  %54 = load ptr, ptr %13, align 8
  %55 = call i32 @fUnsignedTag(ptr noundef %50, ptr noundef %51, ptr noundef %52, i32 noundef %53, ptr noundef %54)
  store i32 %55, ptr %8, align 4
  br label %103

56:                                               ; preds = %4
  store ptr null, ptr %14, align 8
  store i32 0, ptr %12, align 4
  br label %57

57:                                               ; preds = %79, %56
  %58 = load i32, ptr %12, align 4
  %59 = zext i32 %58 to i64
  %60 = icmp ult i64 %59, 56
  br i1 %60, label %61, label %82

61:                                               ; preds = %57
  %62 = load i32, ptr %12, align 4
  %63 = zext i32 %62 to i64
  %64 = getelementptr [56 x %struct._value_string_enum], ptr @BACnetPropertyStatesEnums, i64 0, i64 %63
  store ptr %64, ptr %14, align 8
  %65 = load ptr, ptr %14, align 8
  %66 = getelementptr inbounds nuw %struct._value_string_enum, ptr %65, i32 0, i32 0
  %67 = load i8, ptr %66, align 8
  %68 = zext i8 %67 to i32
  %69 = load i8, ptr %9, align 1
  %70 = zext i8 %69 to i32
  %71 = icmp eq i32 %68, %70
  br i1 %71, label %72, label %78

72:                                               ; preds = %61
  %73 = load ptr, ptr %14, align 8
  %74 = getelementptr inbounds nuw %struct._value_string_enum, ptr %73, i32 0, i32 1
  %75 = load ptr, ptr %74, align 8
  %76 = icmp ne ptr %75, null
  br i1 %76, label %77, label %78

77:                                               ; preds = %72
  br label %82

78:                                               ; preds = %72, %61
  store ptr null, ptr %14, align 8
  br label %79

79:                                               ; preds = %78
  %80 = load i32, ptr %12, align 4
  %81 = add i32 %80, 1
  store i32 %81, ptr %12, align 4
  br label %57, !llvm.loop !145

82:                                               ; preds = %77, %57
  %83 = load ptr, ptr %14, align 8
  %84 = icmp eq ptr %83, null
  br i1 %84, label %85, label %92

85:                                               ; preds = %82
  %86 = load ptr, ptr %5, align 8
  %87 = load ptr, ptr %6, align 8
  %88 = load ptr, ptr %7, align 8
  %89 = load i32, ptr %8, align 4
  %90 = load ptr, ptr %13, align 8
  %91 = call i32 @fEnumeratedTag(ptr noundef %86, ptr noundef %87, ptr noundef %88, i32 noundef %89, ptr noundef %90, ptr noundef null)
  store i32 %91, ptr %8, align 4
  br label %102

92:                                               ; preds = %82
  %93 = load ptr, ptr %5, align 8
  %94 = load ptr, ptr %6, align 8
  %95 = load ptr, ptr %7, align 8
  %96 = load i32, ptr %8, align 4
  %97 = load ptr, ptr %13, align 8
  %98 = load ptr, ptr %14, align 8
  %99 = getelementptr inbounds nuw %struct._value_string_enum, ptr %98, i32 0, i32 1
  %100 = load ptr, ptr %99, align 8
  %101 = call i32 @fEnumeratedTagSplit(ptr noundef %93, ptr noundef %94, ptr noundef %95, i32 noundef %96, ptr noundef %97, ptr noundef %100, i32 noundef 64)
  store i32 %101, ptr %8, align 4
  br label %102

102:                                              ; preds = %92, %85
  br label %103

103:                                              ; preds = %102, %49, %42, %35, %28
  %104 = load i32, ptr %8, align 4
  call void @llvm.lifetime.end.p0(i64 8, ptr %14) #7
  call void @llvm.lifetime.end.p0(i64 8, ptr %13) #7
  call void @llvm.lifetime.end.p0(i64 4, ptr %12) #7
  call void @llvm.lifetime.end.p0(i64 4, ptr %11) #7
  call void @llvm.lifetime.end.p0(i64 1, ptr %10) #7
  call void @llvm.lifetime.end.p0(i64 1, ptr %9) #7
  ret i32 %104
}