; Function Attrs: null_pointer_is_valid sspstrong uwtable
define internal fastcc i32 @fBACnetPropertyStates(ptr noundef nonnull %0, ptr noundef %1, ptr noundef %2, i32 noundef %3) unnamed_addr #0 {
  %5 = alloca i8, align 1
  %6 = alloca i8, align 1
  %7 = alloca i32, align 4
  call void @llvm.lifetime.start.p0(i64 1, ptr nonnull %5) #6
  call void @llvm.lifetime.start.p0(i64 1, ptr nonnull %6) #6
  call void @llvm.lifetime.start.p0(i64 4, ptr nonnull %7) #6
  %8 = call fastcc range(i32 1, 8) i32 @fTagHeaderTree(ptr noundef nonnull %0, ptr noundef %1, ptr noundef null, i32 noundef %3, ptr noundef nonnull %5, ptr noundef nonnull %6, ptr noundef nonnull %7)
  %9 = getelementptr inbounds nuw i8, ptr %1, i64 408
  %10 = load ptr, ptr %9, align 8
  %11 = load i8, ptr %5, align 1
  %12 = zext i8 %11 to i32
  %13 = tail call ptr @val_to_str_const(i32 noundef %12, ptr noundef nonnull @BACnetPropertyStates, ptr noundef nonnull @.str.3126)
  %14 = tail call noalias ptr (ptr, ptr, ...) @wmem_strdup_printf(ptr noundef %10, ptr noundef nonnull @.str.2685, ptr noundef %13)
  switch i8 %11, label %.preheader [
    i8 0, label %15
    i8 11, label %17
    i8 41, label %19
    i8 63, label %21
  ]

15:                                               ; preds = %4
  %16 = tail call fastcc i32 @fBooleanTag(ptr noundef %0, ptr noundef %1, ptr noundef %2, i32 noundef %3, ptr noundef %14)
  br label %35

17:                                               ; preds = %4
  %18 = tail call fastcc i32 @fUnsignedTag(ptr noundef %0, ptr noundef %1, ptr noundef %2, i32 noundef %3, ptr noundef %14)
  br label %35

19:                                               ; preds = %4
  %20 = tail call fastcc i32 @fSignedTag(ptr noundef %0, ptr noundef %1, ptr noundef %2, i32 noundef %3, ptr noundef %14)
  br label %35

21:                                               ; preds = %4
  %22 = tail call fastcc i32 @fUnsignedTag(ptr noundef %0, ptr noundef %1, ptr noundef %2, i32 noundef %3, ptr noundef %14)
  br label %35

.preheader:                                       ; preds = %4, %29
  %indvars.iv = phi i64 [ %indvars.iv.next, %29 ], [ 0, %4 ]
  %23 = getelementptr [56 x %struct._value_string_enum], ptr @BACnetPropertyStatesEnums, i64 0, i64 %indvars.iv
  %24 = load i8, ptr %23, align 16
  %25 = icmp eq i8 %24, %11
  br i1 %25, label %26, label %29

26:                                               ; preds = %.preheader
  %27 = getelementptr inbounds nuw i8, ptr %23, i64 8
  %28 = load ptr, ptr %27, align 8
  %.not = icmp eq ptr %28, null
  br i1 %.not, label %29, label %30

29:                                               ; preds = %26, %.preheader
  %indvars.iv.next = add nuw nsw i64 %indvars.iv, 1
  %exitcond.not = icmp eq i64 %indvars.iv.next, 56
  br i1 %exitcond.not, label %.thread, label %.preheader, !llvm.loop !159

30:                                               ; preds = %26
  %31 = icmp eq ptr %23, null
  br i1 %31, label %.thread, label %33

.thread:                                          ; preds = %29, %30
  %32 = tail call fastcc i32 @fEnumeratedTagSplit(ptr noundef nonnull %0, ptr noundef %1, ptr noundef %2, i32 noundef %3, ptr noundef %14, ptr noundef null, i32 noundef 0)
  br label %35

33:                                               ; preds = %30
  %34 = tail call fastcc i32 @fEnumeratedTagSplit(ptr noundef %0, ptr noundef %1, ptr noundef %2, i32 noundef %3, ptr noundef %14, ptr noundef nonnull %28, i32 noundef 64)
  br label %35

35:                                               ; preds = %.thread, %33, %21, %19, %17, %15
  %.041 = phi i32 [ %32, %.thread ], [ %34, %33 ], [ %22, %21 ], [ %20, %19 ], [ %18, %17 ], [ %16, %15 ]
  call void @llvm.lifetime.end.p0(i64 4, ptr nonnull %7) #6
  call void @llvm.lifetime.end.p0(i64 1, ptr nonnull %6) #6
  call void @llvm.lifetime.end.p0(i64 1, ptr nonnull %5) #6
  ret i32 %.041
}